target datalayout = "e-m:e-p270:32:32-p271:32:32-p272:64:64-i64:64-i128:128-f80:128-n8:16:32:64-S128"
target triple = "x86_64-unknown-linux-gnu"

%"class.arrow::compute::RowTableEncoder" = type { %"struct.arrow::compute::RowTableMetadata", %"class.std::vector.5", %"class.std::vector.5", %"class.std::vector.0" }
%"struct.arrow::compute::RowTableMetadata" = type { i8, i32, i32, i32, i32, i32, %"class.std::vector", %"class.std::vector.0", %"class.std::vector.0", %"class.std::vector.0" }
%"class.std::vector" = type { %"struct.std::_Vector_base" }
%"struct.std::_Vector_base" = type { %"struct.std::_Vector_base<arrow::compute::KeyColumnMetadata, std::allocator<arrow::compute::KeyColumnMetadata>>::_Vector_impl" }
%"struct.std::_Vector_base<arrow::compute::KeyColumnMetadata, std::allocator<arrow::compute::KeyColumnMetadata>>::_Vector_impl" = type { %"struct.std::_Vector_base<arrow::compute::KeyColumnMetadata, std::allocator<arrow::compute::KeyColumnMetadata>>::_Vector_impl_data" }
%"struct.std::_Vector_base<arrow::compute::KeyColumnMetadata, std::allocator<arrow::compute::KeyColumnMetadata>>::_Vector_impl_data" = type { ptr, ptr, ptr }
%"class.std::vector.5" = type { %"struct.std::_Vector_base.6" }
%"struct.std::_Vector_base.6" = type { %"struct.std::_Vector_base<arrow::compute::KeyColumnArray, std::allocator<arrow::compute::KeyColumnArray>>::_Vector_impl" }
%"struct.std::_Vector_base<arrow::compute::KeyColumnArray, std::allocator<arrow::compute::KeyColumnArray>>::_Vector_impl" = type { %"struct.std::_Vector_base<arrow::compute::KeyColumnArray, std::allocator<arrow::compute::KeyColumnArray>>::_Vector_impl_data" }
%"struct.std::_Vector_base<arrow::compute::KeyColumnArray, std::allocator<arrow::compute::KeyColumnArray>>::_Vector_impl_data" = type { ptr, ptr, ptr }
%"class.std::vector.0" = type { %"struct.std::_Vector_base.1" }
%"struct.std::_Vector_base.1" = type { %"struct.std::_Vector_base<unsigned int, std::allocator<unsigned int>>::_Vector_impl" }
%"struct.std::_Vector_base<unsigned int, std::allocator<unsigned int>>::_Vector_impl" = type { %"struct.std::_Vector_base<unsigned int, std::allocator<unsigned int>>::_Vector_impl_data" }
%"struct.std::_Vector_base<unsigned int, std::allocator<unsigned int>>::_Vector_impl_data" = type { ptr, ptr, ptr }
%"class.arrow::compute::KeyColumnArray" = type { [3 x ptr], [3 x ptr], %"struct.arrow::compute::KeyColumnMetadata", i64, [2 x i32] }
%"struct.arrow::compute::KeyColumnMetadata" = type { i8, i8, i32 }
%"struct.arrow::compute::LightContext" = type { i64, ptr }

; Function Attrs: mustprogress nounwind uwtable
define linkonce_odr noundef nonnull align 8 dereferenceable(72) ptr @_ZNSt6vectorIN5arrow7compute14KeyColumnArrayESaIS2_EEixEm(ptr noundef nonnull align 8 dereferenceable(24) %this, i64 noundef %__n) #2 comdat align 2 {
entry:
  %this.addr = alloca ptr, align 8
  %__n.addr = alloca i64, align 8
  store ptr %this, ptr %this.addr, align 8
  store i64 %__n, ptr %__n.addr, align 8
  %this1 = load ptr, ptr %this.addr, align 8
  %_M_impl = getelementptr inbounds %"struct.std::_Vector_base.6", ptr %this1, i32 0, i32 0
  %_M_start = getelementptr inbounds %"struct.std::_Vector_base<arrow::compute::KeyColumnArray, std::allocator<arrow::compute::KeyColumnArray>>::_Vector_impl_data", ptr %_M_impl, i32 0, i32 0
  %0 = load ptr, ptr %_M_start, align 8
  %1 = load i64, ptr %__n.addr, align 8
  %add.ptr = getelementptr inbounds %"class.arrow::compute::KeyColumnArray", ptr %0, i64 %1
  ret ptr %add.ptr
}

; Function Attrs: mustprogress nounwind uwtable
define linkonce_odr noundef i64 @_ZNKSt6vectorIN5arrow7compute14KeyColumnArrayESaIS2_EE4sizeEv(ptr noundef nonnull align 8 dereferenceable(24) %this) #2 comdat align 2 {
entry:
  %this.addr = alloca ptr, align 8
  store ptr %this, ptr %this.addr, align 8
  %this1 = load ptr, ptr %this.addr, align 8
  %_M_impl = getelementptr inbounds %"struct.std::_Vector_base.6", ptr %this1, i32 0, i32 0
  %_M_finish = getelementptr inbounds %"struct.std::_Vector_base<arrow::compute::KeyColumnArray, std::allocator<arrow::compute::KeyColumnArray>>::_Vector_impl_data", ptr %_M_impl, i32 0, i32 1
  %0 = load ptr, ptr %_M_finish, align 8
  %_M_impl2 = getelementptr inbounds %"struct.std::_Vector_base.6", ptr %this1, i32 0, i32 0
  %_M_start = getelementptr inbounds %"struct.std::_Vector_base<arrow::compute::KeyColumnArray, std::allocator<arrow::compute::KeyColumnArray>>::_Vector_impl_data", ptr %_M_impl2, i32 0, i32 0
  %1 = load ptr, ptr %_M_start, align 8
  %sub.ptr.lhs.cast = ptrtoint ptr %0 to i64
  %sub.ptr.rhs.cast = ptrtoint ptr %1 to i64
  %sub.ptr.sub = sub i64 %sub.ptr.lhs.cast, %sub.ptr.rhs.cast
  %sub.ptr.div = sdiv exact i64 %sub.ptr.sub, 72
  ret i64 %sub.ptr.div
}

; Function Attrs: mustprogress uwtable
define void @_ZN5arrow7compute15RowTableEncoder26DecodeVaryingLengthBuffersElllRKNS0_12RowTableImplEPSt6vectorINS0_14KeyColumnArrayESaIS6_EElPNS_4util15TempVectorStackE(ptr noundef nonnull align 8 dereferenceable(192) %this, i64 noundef %start_row_input, i64 noundef %start_row_output, i64 noundef %num_rows, ptr noundef nonnull align 8 dereferenceable(209) %rows, ptr noundef %cols, i64 noundef %hardware_flags, ptr noundef %temp_stack) #0 align 2 {
entry:
  %this.addr = alloca ptr, align 8
  %start_row_input.addr = alloca i64, align 8
  %start_row_output.addr = alloca i64, align 8
  %num_rows.addr = alloca i64, align 8
  %rows.addr = alloca ptr, align 8
  %cols.addr = alloca ptr, align 8
  %hardware_flags.addr = alloca i64, align 8
  %temp_stack.addr = alloca ptr, align 8
  %ctx = alloca %"struct.arrow::compute::LightContext", align 8
  %is_row_fixed_length = alloca i8, align 1
  %i = alloca i64, align 8
  store ptr %this, ptr %this.addr, align 8
  store i64 %start_row_input, ptr %start_row_input.addr, align 8
  store i64 %start_row_output, ptr %start_row_output.addr, align 8
  store i64 %num_rows, ptr %num_rows.addr, align 8
  store ptr %rows, ptr %rows.addr, align 8
  store ptr %cols, ptr %cols.addr, align 8
  store i64 %hardware_flags, ptr %hardware_flags.addr, align 8
  store ptr %temp_stack, ptr %temp_stack.addr, align 8
  %this1 = load ptr, ptr %this.addr, align 8
  %0 = load i64, ptr %start_row_output.addr, align 8
  %1 = load i64, ptr %num_rows.addr, align 8
  %2 = load ptr, ptr %cols.addr, align 8
  call void @_ZN5arrow7compute15RowTableEncoder22PrepareKeyColumnArraysEllRKSt6vectorINS0_14KeyColumnArrayESaIS3_EE(ptr noundef nonnull align 8 dereferenceable(192) %this1, i64 noundef %0, i64 noundef %1, ptr noundef nonnull align 8 dereferenceable(24) %2)
  %3 = load i64, ptr %hardware_flags.addr, align 8
  %hardware_flags2 = getelementptr inbounds %"struct.arrow::compute::LightContext", ptr %ctx, i32 0, i32 0
  store i64 %3, ptr %hardware_flags2, align 8
  %4 = load ptr, ptr %temp_stack.addr, align 8
  %stack = getelementptr inbounds %"struct.arrow::compute::LightContext", ptr %ctx, i32 0, i32 1
  store ptr %4, ptr %stack, align 8
  %row_metadata_ = getelementptr inbounds %"class.arrow::compute::RowTableEncoder", ptr %this1, i32 0, i32 0
  %is_fixed_length = getelementptr inbounds %"struct.arrow::compute::RowTableMetadata", ptr %row_metadata_, i32 0, i32 0
  %5 = load i8, ptr %is_fixed_length, align 8
  %tobool = trunc i8 %5 to i1
  %frombool = zext i1 %tobool to i8
  store i8 %frombool, ptr %is_row_fixed_length, align 1
  %6 = load i8, ptr %is_row_fixed_length, align 1
  %tobool3 = trunc i8 %6 to i1
  br i1 %tobool3, label %if.end, label %if.then

if.then:                                          ; preds = %entry
  store i64 0, ptr %i, align 8
  br label %for.cond

for.cond:                                         ; preds = %for.inc, %if.then
  %7 = load i64, ptr %i, align 8
  %batch_varbinary_cols_ = getelementptr inbounds %"class.arrow::compute::RowTableEncoder", ptr %this1, i32 0, i32 2
  %call = call noundef i64 @_ZNKSt6vectorIN5arrow7compute14KeyColumnArrayESaIS2_EE4sizeEv(ptr noundef nonnull align 8 dereferenceable(24) %batch_varbinary_cols_) #11
  %cmp = icmp ult i64 %7, %call
  br i1 %cmp, label %for.body, label %for.end

for.body:                                         ; preds = %for.cond
  %8 = load i64, ptr %start_row_input.addr, align 8
  %conv = trunc i64 %8 to i32
  %9 = load i64, ptr %num_rows.addr, align 8
  %conv4 = trunc i64 %9 to i32
  %10 = load i64, ptr %i, align 8
  %conv5 = trunc i64 %10 to i32
  %11 = load ptr, ptr %rows.addr, align 8
  %batch_varbinary_cols_6 = getelementptr inbounds %"class.arrow::compute::RowTableEncoder", ptr %this1, i32 0, i32 2
  %12 = load i64, ptr %i, align 8
  %call7 = call noundef nonnull align 8 dereferenceable(72) ptr @_ZNSt6vectorIN5arrow7compute14KeyColumnArrayESaIS2_EEixEm(ptr noundef nonnull align 8 dereferenceable(24) %batch_varbinary_cols_6, i64 noundef %12) #11
  call void @_ZN5arrow7compute16EncoderVarBinary6DecodeEjjjRKNS0_12RowTableImplEPNS0_14KeyColumnArrayEPNS0_12LightContextE(i32 noundef %conv, i32 noundef %conv4, i32 noundef %conv5, ptr noundef nonnull align 8 dereferenceable(209) %11, ptr noundef %call7, ptr noundef %ctx)
  br label %for.inc

for.inc:                                          ; preds = %for.body
  %13 = load i64, ptr %i, align 8
  %inc = add i64 %13, 1
  store i64 %inc, ptr %i, align 8
  br label %for.cond, !llvm.loop !45

for.end:                                          ; preds = %for.cond
  br label %if.end

if.end:                                           ; preds = %for.end, %entry
  ret void
}