; Function Attrs: mustprogress uwtable
define void @_ZN5arrow7compute15RowTableEncoder26DecodeVaryingLengthBuffersElllRKNS0_12RowTableImplEPSt6vectorINS0_14KeyColumnArrayESaIS6_EElPNS_4util15TempVectorStackE(ptr noundef nonnull readonly align 8 captures(none) dereferenceable(192) %this, i64 noundef %start_row_input, i64 noundef %start_row_output, i64 noundef %num_rows, ptr noundef nonnull align 8 dereferenceable(209) %rows, ptr noundef nonnull readonly captures(none) %cols, i64 noundef %hardware_flags, ptr noundef %temp_stack) local_unnamed_addr #0 align 2 {
entry:
  %ctx = alloca %"struct.arrow::compute::LightContext", align 8
  tail call void @_ZN5arrow7compute15RowTableEncoder22PrepareKeyColumnArraysEllRKSt6vectorINS0_14KeyColumnArrayESaIS3_EE(ptr noundef nonnull align 8 dereferenceable(192) %this, i64 noundef %start_row_output, i64 noundef %num_rows, ptr noundef nonnull align 8 dereferenceable(24) %cols)
  store i64 %hardware_flags, ptr %ctx, align 8
  %stack = getelementptr inbounds nuw i8, ptr %ctx, i64 8
  store ptr %temp_stack, ptr %stack, align 8
  %0 = load i8, ptr %this, align 8
  %tobool = trunc i8 %0 to i1
  br i1 %tobool, label %if.end, label %for.cond.preheader

for.cond.preheader:                               ; preds = %entry
  %batch_varbinary_cols_ = getelementptr inbounds nuw i8, ptr %this, i64 144
  %_M_finish.i = getelementptr inbounds nuw i8, ptr %this, i64 152
  %1 = load ptr, ptr %_M_finish.i, align 8
  %2 = load ptr, ptr %batch_varbinary_cols_, align 8
  %cmp9.not = icmp eq ptr %1, %2
  br i1 %cmp9.not, label %if.end, label %for.body.lr.ph

for.body.lr.ph:                                   ; preds = %for.cond.preheader
  %conv = trunc i64 %start_row_input to i32
  %conv4 = trunc i64 %num_rows to i32
  br label %for.body

for.body:                                         ; preds = %for.body.lr.ph, %for.body
  %3 = phi ptr [ %2, %for.body.lr.ph ], [ %5, %for.body ]
  %i.010 = phi i64 [ 0, %for.body.lr.ph ], [ %inc, %for.body ]
  %conv5 = trunc i64 %i.010 to i32
  %add.ptr.i = getelementptr inbounds %"class.arrow::compute::KeyColumnArray", ptr %3, i64 %i.010
  call void @_ZN5arrow7compute16EncoderVarBinary6DecodeEjjjRKNS0_12RowTableImplEPNS0_14KeyColumnArrayEPNS0_12LightContextE(i32 noundef %conv, i32 noundef %conv4, i32 noundef %conv5, ptr noundef nonnull align 8 dereferenceable(209) %rows, ptr noundef nonnull %add.ptr.i, ptr noundef nonnull %ctx)
  %inc = add nuw i64 %i.010, 1
  %4 = load ptr, ptr %_M_finish.i, align 8
  %5 = load ptr, ptr %batch_varbinary_cols_, align 8
  %sub.ptr.lhs.cast.i = ptrtoint ptr %4 to i64
  %sub.ptr.rhs.cast.i = ptrtoint ptr %5 to i64
  %sub.ptr.sub.i = sub i64 %sub.ptr.lhs.cast.i, %sub.ptr.rhs.cast.i
  %sub.ptr.div.i = sdiv exact i64 %sub.ptr.sub.i, 72
  %cmp = icmp ult i64 %inc, %sub.ptr.div.i
  br i1 %cmp, label %for.body, label %if.end, !llvm.loop !34

if.end:                                           ; preds = %for.body, %for.cond.preheader, %entry
  ret void
}